; ModuleID = '14/210.c'
source_filename = "14/210.c"
target datalayout = "e-m:e-p270:32:32-p271:32:32-p272:64:64-i64:64-f80:128-n8:16:32:64-S128"
target triple = "x86_64-pc-linux-gnu"

%struct.stu = type { i32, i32, i32, i32 }

@.str = private unnamed_addr constant [4 x i8] c"%d\0A\00", align 1
@.str.1 = private unnamed_addr constant [9 x i8] c"%d %d %d\00", align 1
@.str.2 = private unnamed_addr constant [7 x i8] c"%d %d\0A\00", align 1

; Function Attrs: noinline nounwind uwtable
define dso_local i32 @main() #0 {
  %1 = alloca i32, align 4
  %2 = alloca i32, align 4
  %3 = alloca i32, align 4
  %4 = alloca i32, align 4
  %5 = alloca [100001 x %struct.stu], align 16
  store i32 0, i32* %1, align 4
  %6 = call i32 (i8*, ...) @__isoc99_scanf(i8* getelementptr inbounds ([4 x i8], [4 x i8]* @.str, i64 0, i64 0), i32* %2)
  store i32 0, i32* %3, align 4
  br label %7

7:                                                ; preds = %40, %0
  %8 = load i32, i32* %3, align 4
  %9 = load i32, i32* %2, align 4
  %10 = icmp slt i32 %8, %9
  br i1 %10, label %11, label %43

11:                                               ; preds = %7
  %12 = load i32, i32* %3, align 4
  %13 = sext i32 %12 to i64
  %14 = getelementptr inbounds [100001 x %struct.stu], [100001 x %struct.stu]* %5, i64 0, i64 %13
  %15 = getelementptr inbounds %struct.stu, %struct.stu* %14, i32 0, i32 0
  %16 = load i32, i32* %3, align 4
  %17 = sext i32 %16 to i64
  %18 = getelementptr inbounds [100001 x %struct.stu], [100001 x %struct.stu]* %5, i64 0, i64 %17
  %19 = getelementptr inbounds %struct.stu, %struct.stu* %18, i32 0, i32 1
  %20 = load i32, i32* %3, align 4
  %21 = sext i32 %20 to i64
  %22 = getelementptr inbounds [100001 x %struct.stu], [100001 x %struct.stu]* %5, i64 0, i64 %21
  %23 = getelementptr inbounds %struct.stu, %struct.stu* %22, i32 0, i32 2
  %24 = call i32 (i8*, ...) @__isoc99_scanf(i8* getelementptr inbounds ([9 x i8], [9 x i8]* @.str.1, i64 0, i64 0), i32* %15, i32* %19, i32* %23)
  %25 = load i32, i32* %3, align 4
  %26 = sext i32 %25 to i64
  %27 = getelementptr inbounds [100001 x %struct.stu], [100001 x %struct.stu]* %5, i64 0, i64 %26
  %28 = getelementptr inbounds %struct.stu, %struct.stu* %27, i32 0, i32 1
  %29 = load i32, i32* %28, align 4
  %30 = load i32, i32* %3, align 4
  %31 = sext i32 %30 to i64
  %32 = getelementptr inbounds [100001 x %struct.stu], [100001 x %struct.stu]* %5, i64 0, i64 %31
  %33 = getelementptr inbounds %struct.stu, %struct.stu* %32, i32 0, i32 2
  %34 = load i32, i32* %33, align 8
  %35 = add nsw i32 %29, %34
  %36 = load i32, i32* %3, align 4
  %37 = sext i32 %36 to i64
  %38 = getelementptr inbounds [100001 x %struct.stu], [100001 x %struct.stu]* %5, i64 0, i64 %37
  %39 = getelementptr inbounds %struct.stu, %struct.stu* %38, i32 0, i32 3
  store i32 %35, i32* %39, align 4
  br label %40

40:                                               ; preds = %11
  %41 = load i32, i32* %3, align 4
  %42 = add nsw i32 %41, 1
  store i32 %42, i32* %3, align 4
  br label %7

43:                                               ; preds = %7
  store i32 1, i32* %4, align 4
  br label %44

44:                                               ; preds = %123, %43
  %45 = load i32, i32* %4, align 4
  %46 = icmp slt i32 %45, 5
  br i1 %46, label %47, label %126

47:                                               ; preds = %44
  store i32 0, i32* %3, align 4
  br label %48

48:                                               ; preds = %119, %47
  %49 = load i32, i32* %3, align 4
  %50 = load i32, i32* %2, align 4
  %51 = load i32, i32* %4, align 4
  %52 = sub nsw i32 %50, %51
  %53 = icmp slt i32 %49, %52
  br i1 %53, label %54, label %122

54:                                               ; preds = %48
  %55 = load i32, i32* %3, align 4
  %56 = sext i32 %55 to i64
  %57 = getelementptr inbounds [100001 x %struct.stu], [100001 x %struct.stu]* %5, i64 0, i64 %56
  %58 = getelementptr inbounds %struct.stu, %struct.stu* %57, i32 0, i32 3
  %59 = load i32, i32* %58, align 4
  %60 = load i32, i32* %3, align 4
  %61 = add nsw i32 %60, 1
  %62 = sext i32 %61 to i64
  %63 = getelementptr inbounds [100001 x %struct.stu], [100001 x %struct.stu]* %5, i64 0, i64 %62
  %64 = getelementptr inbounds %struct.stu, %struct.stu* %63, i32 0, i32 3
  %65 = load i32, i32* %64, align 4
  %66 = icmp sge i32 %59, %65
  br i1 %66, label %67, label %118

67:                                               ; preds = %54
  %68 = load i32, i32* %3, align 4
  %69 = sext i32 %68 to i64
  %70 = getelementptr inbounds [100001 x %struct.stu], [100001 x %struct.stu]* %5, i64 0, i64 %69
  %71 = getelementptr inbounds %struct.stu, %struct.stu* %70, i32 0, i32 0
  %72 = load i32, i32* %71, align 16
  %73 = getelementptr inbounds [100001 x %struct.stu], [100001 x %struct.stu]* %5, i64 0, i64 100000
  %74 = getelementptr inbounds %struct.stu, %struct.stu* %73, i32 0, i32 0
  store i32 %72, i32* %74, align 16
  %75 = load i32, i32* %3, align 4
  %76 = sext i32 %75 to i64
  %77 = getelementptr inbounds [100001 x %struct.stu], [100001 x %struct.stu]* %5, i64 0, i64 %76
  %78 = getelementptr inbounds %struct.stu, %struct.stu* %77, i32 0, i32 3
  %79 = load i32, i32* %78, align 4
  %80 = getelementptr inbounds [100001 x %struct.stu], [100001 x %struct.stu]* %5, i64 0, i64 100000
  %81 = getelementptr inbounds %struct.stu, %struct.stu* %80, i32 0, i32 3
  store i32 %79, i32* %81, align 4
  %82 = load i32, i32* %3, align 4
  %83 = add nsw i32 %82, 1
  %84 = sext i32 %83 to i64
  %85 = getelementptr inbounds [100001 x %struct.stu], [100001 x %struct.stu]* %5, i64 0, i64 %84
  %86 = getelementptr inbounds %struct.stu, %struct.stu* %85, i32 0, i32 0
  %87 = load i32, i32* %86, align 16
  %88 = load i32, i32* %3, align 4
  %89 = sext i32 %88 to i64
  %90 = getelementptr inbounds [100001 x %struct.stu], [100001 x %struct.stu]* %5, i64 0, i64 %89
  %91 = getelementptr inbounds %struct.stu, %struct.stu* %90, i32 0, i32 0
  store i32 %87, i32* %91, align 16
  %92 = getelementptr inbounds [100001 x %struct.stu], [100001 x %struct.stu]* %5, i64 0, i64 100000
  %93 = getelementptr inbounds %struct.stu, %struct.stu* %92, i32 0, i32 0
  %94 = load i32, i32* %93, align 16
  %95 = load i32, i32* %3, align 4
  %96 = add nsw i32 %95, 1
  %97 = sext i32 %96 to i64
  %98 = getelementptr inbounds [100001 x %struct.stu], [100001 x %struct.stu]* %5, i64 0, i64 %97
  %99 = getelementptr inbounds %struct.stu, %struct.stu* %98, i32 0, i32 0
  store i32 %94, i32* %99, align 16
  %100 = load i32, i32* %3, align 4
  %101 = add nsw i32 %100, 1
  %102 = sext i32 %101 to i64
  %103 = getelementptr inbounds [100001 x %struct.stu], [100001 x %struct.stu]* %5, i64 0, i64 %102
  %104 = getelementptr inbounds %struct.stu, %struct.stu* %103, i32 0, i32 3
  %105 = load i32, i32* %104, align 4
  %106 = load i32, i32* %3, align 4
  %107 = sext i32 %106 to i64
  %108 = getelementptr inbounds [100001 x %struct.stu], [100001 x %struct.stu]* %5, i64 0, i64 %107
  %109 = getelementptr inbounds %struct.stu, %struct.stu* %108, i32 0, i32 3
  store i32 %105, i32* %109, align 4
  %110 = getelementptr inbounds [100001 x %struct.stu], [100001 x %struct.stu]* %5, i64 0, i64 100000
  %111 = getelementptr inbounds %struct.stu, %struct.stu* %110, i32 0, i32 3
  %112 = load i32, i32* %111, align 4
  %113 = load i32, i32* %3, align 4
  %114 = add nsw i32 %113, 1
  %115 = sext i32 %114 to i64
  %116 = getelementptr inbounds [100001 x %struct.stu], [100001 x %struct.stu]* %5, i64 0, i64 %115
  %117 = getelementptr inbounds %struct.stu, %struct.stu* %116, i32 0, i32 3
  store i32 %112, i32* %117, align 4
  br label %118

118:                                              ; preds = %67, %54
  br label %119

119:                                              ; preds = %118
  %120 = load i32, i32* %3, align 4
  %121 = add nsw i32 %120, 1
  store i32 %121, i32* %3, align 4
  br label %48

122:                                              ; preds = %48
  br label %123

123:                                              ; preds = %122
  %124 = load i32, i32* %4, align 4
  %125 = add nsw i32 %124, 1
  store i32 %125, i32* %4, align 4
  br label %44

126:                                              ; preds = %44
  %127 = load i32, i32* %2, align 4
  %128 = sub nsw i32 %127, 1
  %129 = sext i32 %128 to i64
  %130 = getelementptr inbounds [100001 x %struct.stu], [100001 x %struct.stu]* %5, i64 0, i64 %129
  %131 = getelementptr inbounds %struct.stu, %struct.stu* %130, i32 0, i32 0
  %132 = load i32, i32* %131, align 16
  %133 = load i32, i32* %2, align 4
  %134 = sub nsw i32 %133, 1
  %135 = sext i32 %134 to i64
  %136 = getelementptr inbounds [100001 x %struct.stu], [100001 x %struct.stu]* %5, i64 0, i64 %135
  %137 = getelementptr inbounds %struct.stu, %struct.stu* %136, i32 0, i32 3
  %138 = load i32, i32* %137, align 4
  %139 = call i32 (i8*, ...) @printf(i8* getelementptr inbounds ([7 x i8], [7 x i8]* @.str.2, i64 0, i64 0), i32 %132, i32 %138)
  %140 = load i32, i32* %2, align 4
  %141 = sub nsw i32 %140, 2
  %142 = sext i32 %141 to i64
  %143 = getelementptr inbounds [100001 x %struct.stu], [100001 x %struct.stu]* %5, i64 0, i64 %142
  %144 = getelementptr inbounds %struct.stu, %struct.stu* %143, i32 0, i32 0
  %145 = load i32, i32* %144, align 16
  %146 = load i32, i32* %2, align 4
  %147 = sub nsw i32 %146, 2
  %148 = sext i32 %147 to i64
  %149 = getelementptr inbounds [100001 x %struct.stu], [100001 x %struct.stu]* %5, i64 0, i64 %148
  %150 = getelementptr inbounds %struct.stu, %struct.stu* %149, i32 0, i32 3
  %151 = load i32, i32* %150, align 4
  %152 = call i32 (i8*, ...) @printf(i8* getelementptr inbounds ([7 x i8], [7 x i8]* @.str.2, i64 0, i64 0), i32 %145, i32 %151)
  %153 = load i32, i32* %2, align 4
  %154 = sub nsw i32 %153, 3
  %155 = sext i32 %154 to i64
  %156 = getelementptr inbounds [100001 x %struct.stu], [100001 x %struct.stu]* %5, i64 0, i64 %155
  %157 = getelementptr inbounds %struct.stu, %struct.stu* %156, i32 0, i32 0
  %158 = load i32, i32* %157, align 16
  %159 = load i32, i32* %2, align 4
  %160 = sub nsw i32 %159, 3
  %161 = sext i32 %160 to i64
  %162 = getelementptr inbounds [100001 x %struct.stu], [100001 x %struct.stu]* %5, i64 0, i64 %161
  %163 = getelementptr inbounds %struct.stu, %struct.stu* %162, i32 0, i32 3
  %164 = load i32, i32* %163, align 4
  %165 = call i32 (i8*, ...) @printf(i8* getelementptr inbounds ([7 x i8], [7 x i8]* @.str.2, i64 0, i64 0), i32 %158, i32 %164)
  ret i32 0
}

declare dso_local i32 @__isoc99_scanf(i8*, ...) #1

declare dso_local i32 @printf(i8*, ...) #1


!llvm.module.flags = !{!0}
!llvm.ident = !{!1}

!0 = !{i32 1, !"wchar_size", i32 4}
!1 = !{!"clang version 10.0.0-4ubuntu1 "}
